target datalayout = "e-m:e-p270:32:32-p271:32:32-p272:64:64-i64:64-i128:128-f80:128-n8:16:32:64-S128"
target triple = "x86_64-pc-linux-gnu"

%struct._zval_struct = type { %union._zend_value, %union.anon, %union.anon.2 }
%union._zend_value = type { i64 }
%union.anon = type { i32 }
%union.anon.2 = type { i32 }
%struct._zend_refcounted_h = type { i32, %union.anon.3 }
%union.anon.3 = type { i32 }
%struct._php_stream_context = type { ptr, %struct._zval_struct, ptr }
%struct._zend_refcounted = type { %struct._zend_refcounted_h }
%struct._php_stream_notifier = type { ptr, ptr, %struct._zval_struct, i32, i64, i64 }

@.str.32 = private unnamed_addr constant [13 x i8] c"notification\00", align 1
@.str.33 = private unnamed_addr constant [8 x i8] c"options\00", align 1
@.str.42 = private unnamed_addr constant [33 x i8] c"Invalid stream/context parameter\00", align 1

; Function Attrs: nounwind uwtable
define internal i32 @parse_context_params(ptr noundef %0, ptr noundef %1) #0 {
  %3 = alloca ptr, align 8
  %4 = alloca ptr, align 8
  %5 = alloca i32, align 4
  %6 = alloca ptr, align 8
  %7 = alloca ptr, align 8
  %8 = alloca ptr, align 8
  %9 = alloca ptr, align 8
  %10 = alloca ptr, align 8
  %11 = alloca ptr, align 8
  %12 = alloca i32, align 4
  store ptr %0, ptr %6, align 8
  store ptr %1, ptr %7, align 8
  %13 = load ptr, ptr %7, align 8
  %14 = call ptr @zend_hash_str_find(ptr noundef %13, ptr noundef @.str.32, i64 noundef 12)
  store ptr %14, ptr %8, align 8
  %15 = icmp ne ptr null, %14
  br i1 %15, label %16, label %70

16:                                               ; preds = %2
  %17 = load ptr, ptr %6, align 8
  %18 = getelementptr inbounds %struct._php_stream_context, ptr %17, i32 0, i32 0
  %19 = load ptr, ptr %18, align 8
  %20 = icmp ne ptr %19, null
  br i1 %20, label %21, label %27

21:                                               ; preds = %16
  %22 = load ptr, ptr %6, align 8
  %23 = getelementptr inbounds %struct._php_stream_context, ptr %22, i32 0, i32 0
  %24 = load ptr, ptr %23, align 8
  call void @php_stream_notification_free(ptr noundef %24)
  %25 = load ptr, ptr %6, align 8
  %26 = getelementptr inbounds %struct._php_stream_context, ptr %25, i32 0, i32 0
  store ptr null, ptr %26, align 8
  br label %27

27:                                               ; preds = %21, %16
  %28 = call ptr @php_stream_notification_alloc()
  %29 = load ptr, ptr %6, align 8
  %30 = getelementptr inbounds %struct._php_stream_context, ptr %29, i32 0, i32 0
  store ptr %28, ptr %30, align 8
  %31 = load ptr, ptr %6, align 8
  %32 = getelementptr inbounds %struct._php_stream_context, ptr %31, i32 0, i32 0
  %33 = load ptr, ptr %32, align 8
  %34 = getelementptr inbounds %struct._php_stream_notifier, ptr %33, i32 0, i32 0
  store ptr @user_space_stream_notifier, ptr %34, align 8
  br label %35

35:                                               ; preds = %27
  %36 = load ptr, ptr %6, align 8
  %37 = getelementptr inbounds %struct._php_stream_context, ptr %36, i32 0, i32 0
  %38 = load ptr, ptr %37, align 8
  %39 = getelementptr inbounds %struct._php_stream_notifier, ptr %38, i32 0, i32 2
  store ptr %39, ptr %9, align 8
  %40 = load ptr, ptr %8, align 8
  store ptr %40, ptr %10, align 8
  %41 = load ptr, ptr %10, align 8
  %42 = getelementptr inbounds %struct._zval_struct, ptr %41, i32 0, i32 0
  %43 = load ptr, ptr %42, align 8
  store ptr %43, ptr %11, align 8
  %44 = load ptr, ptr %10, align 8
  %45 = getelementptr inbounds %struct._zval_struct, ptr %44, i32 0, i32 1
  %46 = load i32, ptr %45, align 8
  store i32 %46, ptr %12, align 4
  br label %47

47:                                               ; preds = %35
  %48 = load ptr, ptr %11, align 8
  %49 = load ptr, ptr %9, align 8
  %50 = getelementptr inbounds %struct._zval_struct, ptr %49, i32 0, i32 0
  store ptr %48, ptr %50, align 8
  %51 = load i32, ptr %12, align 4
  %52 = load ptr, ptr %9, align 8
  %53 = getelementptr inbounds %struct._zval_struct, ptr %52, i32 0, i32 1
  store i32 %51, ptr %53, align 8
  br label %54

54:                                               ; preds = %47
  %55 = load i32, ptr %12, align 4
  %56 = and i32 %55, 65280
  %57 = icmp ne i32 %56, 0
  br i1 %57, label %58, label %64

58:                                               ; preds = %54
  %59 = load ptr, ptr %11, align 8
  %60 = getelementptr inbounds %struct._zend_refcounted, ptr %59, i32 0, i32 0
  store ptr %60, ptr %3, align 8
  %61 = load ptr, ptr %3, align 8
  %62 = load i32, ptr %61, align 4
  %63 = add i32 %62, 1
  store i32 %63, ptr %61, align 4
  br label %64

64:                                               ; preds = %58, %54
  br label %65

65:                                               ; preds = %64
  %66 = load ptr, ptr %6, align 8
  %67 = getelementptr inbounds %struct._php_stream_context, ptr %66, i32 0, i32 0
  %68 = load ptr, ptr %67, align 8
  %69 = getelementptr inbounds %struct._php_stream_notifier, ptr %68, i32 0, i32 1
  store ptr @user_space_stream_notifier_dtor, ptr %69, align 8
  br label %70

70:                                               ; preds = %65, %2
  %71 = load ptr, ptr %7, align 8
  %72 = call ptr @zend_hash_str_find(ptr noundef %71, ptr noundef @.str.33, i64 noundef 7)
  store ptr %72, ptr %8, align 8
  %73 = icmp ne ptr null, %72
  br i1 %73, label %74, label %88

74:                                               ; preds = %70
  %75 = load ptr, ptr %8, align 8
  store ptr %75, ptr %4, align 8
  %76 = load ptr, ptr %4, align 8
  %77 = getelementptr inbounds %struct._zval_struct, ptr %76, i32 0, i32 1
  %78 = load i8, ptr %77, align 8
  %79 = zext i8 %78 to i32
  %80 = icmp eq i32 %79, 7
  br i1 %80, label %81, label %87

81:                                               ; preds = %74
  %82 = load ptr, ptr %6, align 8
  %83 = load ptr, ptr %8, align 8
  %84 = getelementptr inbounds %struct._zval_struct, ptr %83, i32 0, i32 0
  %85 = load ptr, ptr %84, align 8
  %86 = call i32 @parse_context_options(ptr noundef %82, ptr noundef %85)
  store i32 %86, ptr %5, align 4
  br label %89

87:                                               ; preds = %74
  call void (ptr, ...) @zend_type_error(ptr noundef @.str.42)
  store i32 -1, ptr %5, align 4
  br label %89

88:                                               ; preds = %70
  store i32 0, ptr %5, align 4
  br label %89

89:                                               ; preds = %88, %87, %81
  %90 = load i32, ptr %5, align 4
  ret i32 %90
}