; Function Attrs: nounwind uwtable
define internal fastcc noundef i32 @parse_context_params(ptr noundef %0, ptr noundef %1) unnamed_addr #0 {
  %3 = tail call ptr @zend_hash_str_find(ptr noundef %1, ptr noundef nonnull @.str.32, i64 noundef 12) #10
  %.not = icmp eq ptr %3, null
  br i1 %.not, label %22, label %4

4:                                                ; preds = %2
  %5 = load ptr, ptr %0, align 8
  %.not26 = icmp eq ptr %5, null
  br i1 %.not26, label %7, label %6

6:                                                ; preds = %4
  tail call void @php_stream_notification_free(ptr noundef nonnull %5) #10
  store ptr null, ptr %0, align 8
  br label %7

7:                                                ; preds = %6, %4
  %8 = tail call ptr @php_stream_notification_alloc() #10
  store ptr %8, ptr %0, align 8
  store ptr @user_space_stream_notifier, ptr %8, align 8
  %9 = load ptr, ptr %0, align 8
  %10 = getelementptr inbounds i8, ptr %9, i64 16
  %11 = load ptr, ptr %3, align 8
  %12 = getelementptr inbounds i8, ptr %3, i64 8
  %13 = load i32, ptr %12, align 8
  store ptr %11, ptr %10, align 8
  %14 = getelementptr inbounds i8, ptr %9, i64 24
  store i32 %13, ptr %14, align 8
  %15 = and i32 %13, 65280
  %.not27 = icmp eq i32 %15, 0
  br i1 %.not27, label %19, label %16

16:                                               ; preds = %7
  %17 = load i32, ptr %11, align 4
  %18 = add i32 %17, 1
  store i32 %18, ptr %11, align 4
  br label %19

19:                                               ; preds = %7, %16
  %20 = load ptr, ptr %0, align 8
  %21 = getelementptr inbounds i8, ptr %20, i64 8
  store ptr @user_space_stream_notifier_dtor, ptr %21, align 8
  br label %22

22:                                               ; preds = %19, %2
  %23 = tail call ptr @zend_hash_str_find(ptr noundef %1, ptr noundef nonnull @.str.33, i64 noundef 7) #10
  %.not28 = icmp eq ptr %23, null
  br i1 %.not28, label %32, label %24

24:                                               ; preds = %22
  %25 = getelementptr inbounds i8, ptr %23, i64 8
  %26 = load i8, ptr %25, align 8
  %27 = icmp eq i8 %26, 7
  br i1 %27, label %28, label %31

28:                                               ; preds = %24
  %29 = load ptr, ptr %23, align 8
  %30 = tail call fastcc i32 @parse_context_options(ptr noundef %0, ptr noundef %29), !range !5
  br label %32

31:                                               ; preds = %24
  tail call void (ptr, ...) @zend_type_error(ptr noundef nonnull @.str.42) #10
  br label %32

32:                                               ; preds = %22, %31, %28
  %.0 = phi i32 [ %30, %28 ], [ -1, %31 ], [ 0, %22 ]
  ret i32 %.0
}